; Function Attrs: nounwind uwtable
define ptr @l_Lean_Elab_elabTerminationHints___rarg___lambda__13___boxed(ptr noundef %0, ptr noundef %1, ptr noundef %2, ptr noundef %3, ptr noundef %4, ptr noundef %5) #1 {
  %7 = getelementptr inbounds nuw i8, ptr %0, i64 16
  %8 = load ptr, ptr %7, align 8, !tbaa !10
  %9 = ptrtoint ptr %8 to i64
  %10 = and i64 %9, 1
  %.not.i12 = icmp eq i64 %10, 0
  br i1 %.not.i12, label %11, label %l_Lean_Elab_elabTerminationHints___rarg___lambda__13.exit

11:                                               ; preds = %6
  %.val.i.i = load i32, ptr %8, align 4, !tbaa !4
  %12 = icmp sgt i32 %.val.i.i, 0
  br i1 %12, label %13, label %15, !prof !9

13:                                               ; preds = %11
  %14 = add nuw i32 %.val.i.i, 1
  store i32 %14, ptr %8, align 4, !tbaa !4
  br label %l_Lean_Elab_elabTerminationHints___rarg___lambda__13.exit

15:                                               ; preds = %11
  %.not.i.i = icmp eq i32 %.val.i.i, 0
  br i1 %.not.i.i, label %l_Lean_Elab_elabTerminationHints___rarg___lambda__13.exit, label %16

16:                                               ; preds = %15
  tail call void @lean_inc_ref_cold(ptr noundef nonnull %8) #8
  br label %l_Lean_Elab_elabTerminationHints___rarg___lambda__13.exit

l_Lean_Elab_elabTerminationHints___rarg___lambda__13.exit: ; preds = %6, %13, %15, %16
  %17 = load ptr, ptr @l_Lean_Elab_elabTerminationHints___rarg___lambda__13___closed__2, align 8, !tbaa !10
  %18 = tail call ptr @l_Lean_throwErrorAt___rarg(ptr noundef nonnull %0, ptr noundef %1, ptr noundef %2, ptr noundef %17) #8
  %19 = tail call ptr @lean_apply_4(ptr noundef %8, ptr noundef nonnull inttoptr (i64 1 to ptr), ptr noundef nonnull inttoptr (i64 1 to ptr), ptr noundef %18, ptr noundef %3) #8
  %20 = ptrtoint ptr %5 to i64
  %21 = and i64 %20, 1
  %.not = icmp eq i64 %21, 0
  br i1 %.not, label %22, label %lean_dec.exit9

22:                                               ; preds = %l_Lean_Elab_elabTerminationHints___rarg___lambda__13.exit
  %23 = load i32, ptr %5, align 4, !tbaa !4
  %24 = icmp sgt i32 %23, 1
  br i1 %24, label %25, label %27, !prof !9

25:                                               ; preds = %22
  %26 = add nsw i32 %23, -1
  store i32 %26, ptr %5, align 4, !tbaa !4
  br label %lean_dec.exit9

27:                                               ; preds = %22
  %.not.i = icmp eq i32 %23, 0
  br i1 %.not.i, label %lean_dec.exit9, label %28

28:                                               ; preds = %27
  tail call void @lean_dec_ref_cold(ptr noundef nonnull %5) #8
  br label %lean_dec.exit9

lean_dec.exit9:                                   ; preds = %28, %27, %25, %l_Lean_Elab_elabTerminationHints___rarg___lambda__13.exit
  %29 = ptrtoint ptr %4 to i64
  %30 = and i64 %29, 1
  %.not13 = icmp eq i64 %30, 0
  br i1 %.not13, label %31, label %lean_dec.exit

31:                                               ; preds = %lean_dec.exit9
  %32 = load i32, ptr %4, align 4, !tbaa !4
  %33 = icmp sgt i32 %32, 1
  br i1 %33, label %34, label %36, !prof !9

34:                                               ; preds = %31
  %35 = add nsw i32 %32, -1
  store i32 %35, ptr %4, align 4, !tbaa !4
  br label %lean_dec.exit

36:                                               ; preds = %31
  %.not.i10 = icmp eq i32 %32, 0
  br i1 %.not.i10, label %lean_dec.exit, label %37

37:                                               ; preds = %36
  tail call void @lean_dec_ref_cold(ptr noundef nonnull %4) #8
  br label %lean_dec.exit

lean_dec.exit:                                    ; preds = %37, %36, %34, %lean_dec.exit9
  ret ptr %19
}